target datalayout = "e-m:e-p270:32:32-p271:32:32-p272:64:64-i64:64-i128:128-f80:128-n8:16:32:64-S128"
target triple = "x86_64-pc-linux-gnu"

%class.FileLine = type { i16, i16, i32, i32, i32, i32, i32, ptr, ptr }

; Function Attrs: mustprogress nounwind uwtable
define linkonce_odr dso_local void @_ZN8FileLine9linenoIncEv(ptr noundef nonnull align 8 dereferenceable(40) %0) #5 comdat align 2 {
  %2 = alloca ptr, align 8
  store ptr %0, ptr %2, align 8
  %3 = load ptr, ptr %2, align 8
  %4 = getelementptr inbounds %class.FileLine, ptr %3, i32 0, i32 5
  %5 = load i32, ptr %4, align 8
  %6 = add nsw i32 %5, 1
  store i32 %6, ptr %4, align 8
  %7 = getelementptr inbounds %class.FileLine, ptr %3, i32 0, i32 6
  store i32 1, ptr %7, align 4
  %8 = getelementptr inbounds %class.FileLine, ptr %3, i32 0, i32 2
  %9 = load i32, ptr %8, align 4
  %10 = lshr i32 %9, 1
  %11 = add i32 %10, 1
  %12 = load i32, ptr %8, align 4
  %13 = and i32 %11, 2147483647
  %14 = shl i32 %13, 1
  %15 = and i32 %12, 1
  %16 = or i32 %15, %14
  store i32 %16, ptr %8, align 4
  ret void
}

; Function Attrs: mustprogress uwtable
define dso_local void @_ZN8FileLine12forwardTokenEPKcmb(ptr noundef nonnull align 8 dereferenceable(40) %0, ptr noundef %1, i64 noundef %2, i1 noundef zeroext %3) #4 align 2 {
  %5 = alloca ptr, align 8
  %6 = alloca ptr, align 8
  %7 = alloca i64, align 8
  %8 = alloca i8, align 1
  %9 = alloca ptr, align 8
  store ptr %0, ptr %5, align 8
  store ptr %1, ptr %6, align 8
  store i64 %2, ptr %7, align 8
  %10 = zext i1 %3 to i8
  store i8 %10, ptr %8, align 1
  %11 = load ptr, ptr %5, align 8
  %12 = load ptr, ptr %6, align 8
  store ptr %12, ptr %9, align 8
  br label %13

13:                                               ; preds = %47, %4
  %14 = load i64, ptr %7, align 8
  %15 = icmp ne i64 %14, 0
  br i1 %15, label %16, label %20

16:                                               ; preds = %13
  %17 = load ptr, ptr %9, align 8
  %18 = load i8, ptr %17, align 1
  %19 = icmp ne i8 %18, 0
  br label %20

20:                                               ; preds = %16, %13
  %21 = phi i1 [ false, %13 ], [ %19, %16 ]
  br i1 %21, label %22, label %52

22:                                               ; preds = %20
  %23 = load ptr, ptr %9, align 8
  %24 = load i8, ptr %23, align 1
  %25 = sext i8 %24 to i32
  %26 = icmp eq i32 %25, 10
  br i1 %26, label %27, label %33

27:                                               ; preds = %22
  %28 = load i8, ptr %8, align 1
  %29 = trunc i8 %28 to i1
  br i1 %29, label %30, label %31

30:                                               ; preds = %27
  call void @_ZN8FileLine9linenoIncEv(ptr noundef nonnull align 8 dereferenceable(40) %11)
  br label %31

31:                                               ; preds = %30, %27
  %32 = getelementptr inbounds %class.FileLine, ptr %11, i32 0, i32 6
  store i32 1, ptr %32, align 4
  br label %46

33:                                               ; preds = %22
  %34 = load ptr, ptr %9, align 8
  %35 = load i8, ptr %34, align 1
  %36 = sext i8 %35 to i32
  %37 = icmp eq i32 %36, 13
  %38 = xor i1 %37, true
  %39 = xor i1 %38, true
  br i1 %39, label %40, label %41

40:                                               ; preds = %33
  br label %45

41:                                               ; preds = %33
  %42 = getelementptr inbounds %class.FileLine, ptr %11, i32 0, i32 6
  %43 = load i32, ptr %42, align 4
  %44 = add nsw i32 %43, 1
  store i32 %44, ptr %42, align 4
  br label %45

45:                                               ; preds = %41, %40
  br label %46

46:                                               ; preds = %45, %31
  br label %47

47:                                               ; preds = %46
  %48 = load ptr, ptr %9, align 8
  %49 = getelementptr inbounds i8, ptr %48, i32 1
  store ptr %49, ptr %9, align 8
  %50 = load i64, ptr %7, align 8
  %51 = add i64 %50, -1
  store i64 %51, ptr %7, align 8
  br label %13, !llvm.loop !16

52:                                               ; preds = %20
  ret void
}