; Function Attrs: mustprogress nofree norecurse nosync nounwind memory(read, argmem: readwrite, inaccessiblemem: none) uwtable
define dso_local void @_ZN8FileLine12forwardTokenEPKcmb(ptr nocapture noundef nonnull align 8 dereferenceable(40) %0, ptr nocapture noundef readonly %1, i64 noundef %2, i1 noundef zeroext %3) local_unnamed_addr #13 align 2 {
  %.not12 = icmp eq i64 %2, 0
  br i1 %.not12, label %.critedge, label %.lr.ph

.lr.ph:                                           ; preds = %4
  %5 = getelementptr inbounds i8, ptr %0, i64 16
  %6 = getelementptr inbounds i8, ptr %0, i64 20
  %7 = getelementptr inbounds i8, ptr %0, i64 4
  %.promoted16 = load i32, ptr %6, align 4
  br i1 %3, label %.lr.ph.split.us.preheader, label %.lr.ph.split

.lr.ph.split.us.preheader:                        ; preds = %.lr.ph
  %.promoted17 = load i32, ptr %7, align 4
  %.promoted = load i32, ptr %5, align 8
  br label %.lr.ph.split.us

.lr.ph.split.us:                                  ; preds = %.lr.ph.split.us.preheader, %20
  %8 = phi i32 [ %21, %20 ], [ %.promoted17, %.lr.ph.split.us.preheader ]
  %9 = phi i32 [ %22, %20 ], [ %.promoted16, %.lr.ph.split.us.preheader ]
  %10 = phi i32 [ %23, %20 ], [ %.promoted, %.lr.ph.split.us.preheader ]
  %.014.us = phi ptr [ %24, %20 ], [ %1, %.lr.ph.split.us.preheader ]
  %.0813.us = phi i64 [ %25, %20 ], [ %2, %.lr.ph.split.us.preheader ]
  %11 = load i8, ptr %.014.us, align 1
  switch i8 %11, label %18 [
    i8 0, label %.critedge
    i8 10, label %12
    i8 13, label %20
  ]

12:                                               ; preds = %.lr.ph.split.us
  %13 = add nsw i32 %10, 1
  store i32 %13, ptr %5, align 8
  %14 = and i32 %8, -2
  %15 = add i32 %14, 2
  %16 = and i32 %8, 1
  %17 = or disjoint i32 %15, %16
  store i32 %17, ptr %7, align 4
  br label %.sink.split

18:                                               ; preds = %.lr.ph.split.us
  %19 = add nsw i32 %9, 1
  br label %.sink.split

.sink.split:                                      ; preds = %12, %18
  %.sink = phi i32 [ %19, %18 ], [ 1, %12 ]
  %.ph = phi i32 [ %8, %18 ], [ %17, %12 ]
  %.ph21 = phi i32 [ %10, %18 ], [ %13, %12 ]
  store i32 %.sink, ptr %6, align 4
  br label %20

20:                                               ; preds = %.sink.split, %.lr.ph.split.us
  %21 = phi i32 [ %8, %.lr.ph.split.us ], [ %.ph, %.sink.split ]
  %22 = phi i32 [ %9, %.lr.ph.split.us ], [ %.sink, %.sink.split ]
  %23 = phi i32 [ %10, %.lr.ph.split.us ], [ %.ph21, %.sink.split ]
  %24 = getelementptr inbounds i8, ptr %.014.us, i64 1
  %25 = add i64 %.0813.us, -1
  %.not.us = icmp eq i64 %25, 0
  br i1 %.not.us, label %.critedge, label %.lr.ph.split.us, !llvm.loop !103

.lr.ph.split:                                     ; preds = %.lr.ph, %30
  %26 = phi i32 [ %31, %30 ], [ %.promoted16, %.lr.ph ]
  %.014 = phi ptr [ %32, %30 ], [ %1, %.lr.ph ]
  %.0813 = phi i64 [ %33, %30 ], [ %2, %.lr.ph ]
  %27 = load i8, ptr %.014, align 1
  switch i8 %27, label %28 [
    i8 0, label %.critedge
    i8 10, label %.sink.split22
    i8 13, label %30
  ]

28:                                               ; preds = %.lr.ph.split
  %29 = add nsw i32 %26, 1
  br label %.sink.split22

.sink.split22:                                    ; preds = %.lr.ph.split, %28
  %.sink24 = phi i32 [ %29, %28 ], [ 1, %.lr.ph.split ]
  store i32 %.sink24, ptr %6, align 4
  br label %30

30:                                               ; preds = %.sink.split22, %.lr.ph.split
  %31 = phi i32 [ %26, %.lr.ph.split ], [ %.sink24, %.sink.split22 ]
  %32 = getelementptr inbounds i8, ptr %.014, i64 1
  %33 = add i64 %.0813, -1
  %.not = icmp eq i64 %33, 0
  br i1 %.not, label %.critedge, label %.lr.ph.split, !llvm.loop !103

.critedge:                                        ; preds = %30, %.lr.ph.split, %20, %.lr.ph.split.us, %4
  ret void
}